target datalayout = "e-m:e-p270:32:32-p271:32:32-p272:64:64-i64:64-i128:128-f80:128-n8:16:32:64-S128"
target triple = "x86_64-pc-linux-gnu"

; Function Attrs: alwaysinline nounwind uwtable
define internal void @mbedtls_put_unaligned_uint32(ptr noundef %0, i32 noundef %1) #3 {
  %3 = alloca ptr, align 8
  %4 = alloca i32, align 4
  store ptr %0, ptr %3, align 8, !tbaa !3
  store i32 %1, ptr %4, align 4, !tbaa !11
  %5 = load ptr, ptr %3, align 8, !tbaa !3
  call void @llvm.memcpy.p0.p0.i64(ptr align 1 %5, ptr align 4 %4, i64 4, i1 false)
  ret void
}

; Function Attrs: alwaysinline nounwind uwtable
define internal i32 @mbedtls_get_unaligned_uint32(ptr noundef %0) #3 {
  %2 = alloca ptr, align 8
  %3 = alloca i32, align 4
  store ptr %0, ptr %2, align 8, !tbaa !3
  call void @llvm.lifetime.start.p0(i64 4, ptr %3) #5
  %4 = load ptr, ptr %2, align 8, !tbaa !3
  call void @llvm.memcpy.p0.p0.i64(ptr align 4 %3, ptr align 1 %4, i64 4, i1 false)
  %5 = load i32, ptr %3, align 4, !tbaa !11
  call void @llvm.lifetime.end.p0(i64 4, ptr %3) #5
  ret i32 %5
}

; Function Attrs: nounwind uwtable
define hidden void @mbedtls_ct_zeroize_if(i64 noundef %0, ptr noundef %1, i64 noundef %2) #0 {
  %4 = alloca i64, align 8
  %5 = alloca ptr, align 8
  %6 = alloca i64, align 8
  %7 = alloca i32, align 4
  %8 = alloca ptr, align 8
  %9 = alloca i64, align 8
  store i64 %0, ptr %4, align 8, !tbaa !7
  store ptr %1, ptr %5, align 8, !tbaa !3
  store i64 %2, ptr %6, align 8, !tbaa !7
  call void @llvm.lifetime.start.p0(i64 4, ptr %7) #5
  %10 = load i64, ptr %4, align 8, !tbaa !7
  %11 = xor i64 %10, -1
  %12 = trunc i64 %11 to i32
  store i32 %12, ptr %7, align 4, !tbaa !11
  call void @llvm.lifetime.start.p0(i64 8, ptr %8) #5
  %13 = load ptr, ptr %5, align 8, !tbaa !3
  store ptr %13, ptr %8, align 8, !tbaa !9
  call void @llvm.lifetime.start.p0(i64 8, ptr %9) #5
  store i64 0, ptr %9, align 8, !tbaa !7
  br label %14

14:                                               ; preds = %29, %3
  %15 = load i64, ptr %9, align 8, !tbaa !7
  %16 = add i64 %15, 4
  %17 = load i64, ptr %6, align 8, !tbaa !7
  %18 = icmp ule i64 %16, %17
  br i1 %18, label %19, label %32

19:                                               ; preds = %14
  %20 = load ptr, ptr %8, align 8, !tbaa !9
  %21 = load i64, ptr %9, align 8, !tbaa !7
  %22 = getelementptr inbounds nuw i8, ptr %20, i64 %21
  %23 = load ptr, ptr %8, align 8, !tbaa !9
  %24 = load i64, ptr %9, align 8, !tbaa !7
  %25 = getelementptr inbounds nuw i8, ptr %23, i64 %24
  %26 = call i32 @mbedtls_get_unaligned_uint32(ptr noundef %25)
  %27 = load i32, ptr %7, align 4, !tbaa !11
  %28 = and i32 %26, %27
  call void @mbedtls_put_unaligned_uint32(ptr noundef %22, i32 noundef %28)
  br label %29

29:                                               ; preds = %19
  %30 = load i64, ptr %9, align 8, !tbaa !7
  %31 = add i64 %30, 4
  store i64 %31, ptr %9, align 8, !tbaa !7
  br label %14, !llvm.loop !24

32:                                               ; preds = %14
  br label %33

33:                                               ; preds = %49, %32
  %34 = load i64, ptr %9, align 8, !tbaa !7
  %35 = load i64, ptr %6, align 8, !tbaa !7
  %36 = icmp ult i64 %34, %35
  br i1 %36, label %37, label %52

37:                                               ; preds = %33
  %38 = load ptr, ptr %8, align 8, !tbaa !9
  %39 = load i64, ptr %9, align 8, !tbaa !7
  %40 = getelementptr inbounds nuw i8, ptr %38, i64 %39
  %41 = load i8, ptr %40, align 1, !tbaa !13
  %42 = zext i8 %41 to i32
  %43 = load i32, ptr %7, align 4, !tbaa !11
  %44 = and i32 %42, %43
  %45 = trunc i32 %44 to i8
  %46 = load ptr, ptr %8, align 8, !tbaa !9
  %47 = load i64, ptr %9, align 8, !tbaa !7
  %48 = getelementptr inbounds nuw i8, ptr %46, i64 %47
  store i8 %45, ptr %48, align 1, !tbaa !13
  br label %49

49:                                               ; preds = %37
  %50 = load i64, ptr %9, align 8, !tbaa !7
  %51 = add i64 %50, 1
  store i64 %51, ptr %9, align 8, !tbaa !7
  br label %33, !llvm.loop !25

52:                                               ; preds = %33
  call void @llvm.lifetime.end.p0(i64 8, ptr %9) #5
  call void @llvm.lifetime.end.p0(i64 8, ptr %8) #5
  call void @llvm.lifetime.end.p0(i64 4, ptr %7) #5
  ret void
}