; Function Attrs: nofree norecurse nosync nounwind memory(argmem: readwrite) uwtable
define hidden void @mbedtls_ct_zeroize_if(i64 noundef %0, ptr noundef captures(none) %1, i64 noundef %2) local_unnamed_addr #2 {
  %4 = trunc i64 %0 to i32
  %5 = xor i32 %4, -1
  %.not18 = icmp ult i64 %2, 4
  br i1 %.not18, label %.preheader, label %.lr.ph

.preheader:                                       ; preds = %.lr.ph, %3
  %.0.lcssa = phi i64 [ 0, %3 ], [ %8, %.lr.ph ]
  %6 = icmp ult i64 %.0.lcssa, %2
  br i1 %6, label %.lr.ph21, label %._crit_edge

.lr.ph21:                                         ; preds = %.preheader
  %7 = trunc i32 %5 to i8
  br label %12

.lr.ph:                                           ; preds = %3, %.lr.ph
  %8 = phi i64 [ %11, %.lr.ph ], [ 4, %3 ]
  %.019 = phi i64 [ %8, %.lr.ph ], [ 0, %3 ]
  %9 = getelementptr inbounds nuw i8, ptr %1, i64 %.019
  %.0.copyload.i = load i32, ptr %9, align 1
  %10 = and i32 %.0.copyload.i, %5
  store i32 %10, ptr %9, align 1
  %11 = add i64 %8, 4
  %.not = icmp ugt i64 %11, %2
  br i1 %.not, label %.preheader, label %.lr.ph, !llvm.loop !18

12:                                               ; preds = %.lr.ph21, %12
  %.120 = phi i64 [ %.0.lcssa, %.lr.ph21 ], [ %16, %12 ]
  %13 = getelementptr inbounds nuw i8, ptr %1, i64 %.120
  %14 = load i8, ptr %13, align 1, !tbaa !3
  %15 = and i8 %14, %7
  store i8 %15, ptr %13, align 1, !tbaa !3
  %16 = add nuw i64 %.120, 1
  %exitcond.not = icmp eq i64 %16, %2
  br i1 %exitcond.not, label %._crit_edge, label %12, !llvm.loop !19

._crit_edge:                                      ; preds = %12, %.preheader
  ret void
}